-----------------------------------
AVR DISASSEMBLER LISTING
Address Opcode  Instruction
-----------------------------------
000000  C05E    L40:	RJMP L1
000001  C600    	RJMP L2
000002  C69D    	RJMP L3
000003  C07F    	RJMP L4
000004  C07E    	RJMP L4
000005  C07D    	RJMP L4
000006  C07C    	RJMP L4
000007  C07B    	RJMP L4
000008  C07A    	RJMP L4
000009  C079    	RJMP L4
00000A  C078    	RJMP L4
00000B  C660    	RJMP L5
00000C  C076    	RJMP L4
00000D  C075    	RJMP L4
00000E  C074    	RJMP L4
00000F  C073    	RJMP L4
000010  C072    	RJMP L4
000011  C0CB    	RJMP L6
000012  C0CF    	RJMP L7
000013  C0D6    	RJMP L8
000014  C0DA    	RJMP L9
000015  C0DE    	RJMP L10
000016  C0E2    	RJMP L11
000017  C0E9    	RJMP L12
000018  C11C    	RJMP L13
000019  C11F    	RJMP L14
00001A  C124    	RJMP L15
00001B  C127    	RJMP L16
00001C  C12A    	RJMP L17
00001D  C12D    	RJMP L18
00001E  C13D    	RJMP L19
00001F  C173    	RJMP L20
000020  C186    	RJMP L21
000021  C1A1    	RJMP L22
000022  C1CB    	RJMP L23
000023  C214    	RJMP L24
000024  C248    	RJMP L25
000025  C261    	RJMP L26
000026  C264    	RJMP L27
000027  C28B    	RJMP L28
000028  C327    	RJMP L29
000029  C326    	RJMP L29
00002A  C325    	RJMP L29
00002B  C289    	RJMP L30
00002C  C2B4    	RJMP L31
00002D  C322    	RJMP L29
00002E  C2C8    	RJMP L32
00002F  C320    	RJMP L29
000030  C31F    	RJMP L29
000031  C318    	RJMP L33
000032  C31B    	RJMP L34
000033  0A0D    	SBC R0,YH
000034  5000    	SUBI R16,$00
000035  003A    	UNRECOGNIZED
000036  0A0D    	SBC R0,YH
000037  4100    	SBCI R16,$10
000038  0D00    	ADD R16,R0
000039  000A    	UNRECOGNIZED
00003A  0A0D    	SBC R0,YH
00003B  4400    	SBCI R16,$40
00003C  003A    	UNRECOGNIZED
00003D  0A0D    	SBC R0,YH
00003E  4E00    	SBCI R16,$E0
00003F  0055    	UNRECOGNIZED
000040  0A0D    	SBC R0,YH
000041  4100    	SBCI R16,$10
000042  0D00    	ADD R16,R0
000043  000A    	UNRECOGNIZED
000044  0A0D    	SBC R0,YH
000045  0D00    	ADD R16,R0
000046  000A    	UNRECOGNIZED
000047  0041    	UNRECOGNIZED
000048  424E    	SBCI R20,$2E
000049  0D00    	ADD R16,R0
00004A  000A    	UNRECOGNIZED
00004B  0A0D    	SBC R0,YH
00004C  4100    	SBCI R16,$10
00004D  4E00    	SBCI R16,$E0
00004E  0042    	UNRECOGNIZED
00004F  0041    	UNRECOGNIZED
000050  0A0D    	SBC R0,YH
000051  4E00    	SBCI R16,$E0
000052  0055    	UNRECOGNIZED
000053  0A0D    	SBC R0,YH
000054  4700    	SBCI R16,$70
000055  003A    	UNRECOGNIZED
000056  0A0D    	SBC R0,YH
000057  5400    	SUBI R16,$40
000058  503A    	SUBI R19,$0A
000059  6C69    	ORI R22,$C9
00005A  436C    	SBCI R22,$3C
00005B  7061    	ANDI R22,$01
00005C  003A    	UNRECOGNIZED
00005D  554E    	SUBI R20,$5E
00005E  0000    	NOP
00005F  2411    L1:	CLR R1
000060  BE1F    	OUT SREG,R1
000061  E5CF    	LDI YL,$5F
000062  E0D2    	LDI YH,$02
000063  BFDE    	OUT SPH,YH
000064  BFCD    	OUT SPL,YL
000065  BE14    	OUT MCUSR,R1
000066  B60F    	IN R0,SREG
000067  94F8    	BCLR 7
000068  95A8    	WDR
000069  B581    	IN R24,WDTCSR
00006A  6188    	ORI R24,$18
00006B  BD81    	OUT WDTCSR,R24
00006C  BC11    	OUT WDTCSR,R1
00006D  BE0F    	OUT SREG,R0
00006E  E010    	LDI R17,$00
00006F  E6A0    	LDI XL,$60
000070  E0B0    	LDI XH,$00
000071  E3EC    	LDI ZL,$3C
000072  E1F2    	LDI ZH,$12
000073  C002    	RJMP L35
000074  9005    L36:	LPM R0,Z+
000075  920D    	ST X+,R0
000076  36A8    L35:	CPI XL,$68
000077  07B1    	CPC XH,R17
000078  F7D9    	BRNE L36
000079  E021    	LDI R18,$01
00007A  E6A8    	LDI XL,$68
00007B  E0B0    	LDI XH,$00
00007C  C001    	RJMP L37
00007D  921D    L38:	ST X+,R1
00007E  32AE    L37:	CPI XL,$2E
00007F  07B2    	CPC XH,R18
000080  F7E1    	BRNE L38
000081  D4C2    	RCALL L39
000082  C899    	RJMP -1895
000083  CF7C    L4:	RJMP L40
000084  EB8A    L191:	LDI R24,$BA
000085  E090    	LDI R25,$00
000086  C6DF    	RJMP L41
000087  92CF    L113:	PUSH R12
000088  92DF    	PUSH R13
000089  92EF    	PUSH R14
00008A  92FF    	PUSH R15
00008B  EA8F    	LDI R24,$AF
00008C  E090    	LDI R25,$00
00008D  D6D8    	RCALL L41
00008E  E380    	LDI R24,$30
00008F  D69D    	RCALL L42
000090  E28E    	LDI R24,$2E
000091  D69B    	RCALL L42
000092  E383    	LDI R24,$33
000093  D699    	RCALL L42
000094  E380    	LDI R24,$30
000095  D697    	RCALL L42
000096  E38A    	LDI R24,$3A
000097  D695    	RCALL L42
000098  D3EE    	RCALL L43
000099  1181    	CPSE R24,R1
00009A  C002    	RJMP L44
00009B  E084    L46:	LDI R24,$04
00009C  C016    	RJMP L45
00009D  D3E9    L44:	RCALL L43
00009E  3F8F    	CPI R24,$FF
00009F  F3D9    	BREQ L46
0000A0  D3E9    	RCALL L47
0000A1  2EF8    	MOV R15,R24
0000A2  D3E4    	RCALL L43
0000A3  16F8    	CP R15,R24
0000A4  F059    	BREQ L48
0000A5  D419    	RCALL L49
0000A6  016B    	MOVW R13:R12,R23:R22
0000A7  017C    	MOVW R15:R14,R25:R24
0000A8  D43B    	RCALL L50
0000A9  156C    	CP R22,R12
0000AA  057D    	CPC R23,R13
0000AB  058E    	CPC R24,R14
0000AC  059F    	CPC R25,R15
0000AD  F020    	BRCS L51
0000AE  E081    	LDI R24,$01
0000AF  C003    	RJMP L45
0000B0  E080    L48:	LDI R24,$00
0000B1  C001    	RJMP L45
0000B2  E082    L51:	LDI R24,$02
0000B3  5D80    L45:	SUBI R24,$D0
0000B4  D678    	RCALL L42
0000B5  EA8C    	LDI R24,$AC
0000B6  E090    	LDI R25,$00
0000B7  90FF    	POP R15
0000B8  90EF    	POP R14
0000B9  90DF    	POP R13
0000BA  90CF    	POP R12
0000BB  C6AA    	RJMP L41
0000BC  930F    L101:	PUSH R16
0000BD  931F    	PUSH R17
0000BE  93CF    	PUSH YL
0000BF  93DF    	PUSH YH
0000C0  B7CD    	IN YL,SPL
0000C1  B7DE    	IN YH,SPH
0000C2  9765    	SBIW YH:YL,21
0000C3  B60F    	IN R0,SREG
0000C4  94F8    	BCLR 7
0000C5  BFDE    	OUT SPH,YH
0000C6  BE0F    	OUT SREG,R0
0000C7  BFCD    	OUT SPL,YL
0000C8  018C    	MOVW R17:R16,R25:R24
0000C9  EA89    	LDI R24,$A9
0000CA  E090    	LDI R25,$00
0000CB  D69A    	RCALL L41
0000CC  01D8    	MOVW R27:R26,R17:R16
0000CD  918C    	LD R24,X
0000CE  D65E    	RCALL L42
0000CF  E38A    	LDI R24,$3A
0000D0  D65C    	RCALL L42
0000D1  01D8    	MOVW R27:R26,R17:R16
0000D2  91EC    	LD ZL,X
0000D3  2F8E    	MOV R24,ZL
0000D4  E090    	LDI R25,$00
0000D5  01FC    	MOVW R31:R30,R25:R24
0000D6  97F0    	SBIW ZH:ZL,48
0000D7  30E7    	CPI ZL,$07
0000D8  05F1    	CPC ZH,R1
0000D9  F578    	BRCC L52
0000DA  5EEF    	SUBI ZL,$EF
0000DB  4FFF    	SBCI ZH,$FF
0000DC  9409    	IJMP
0000DD  E145    L6:	LDI R20,$15
0000DE  E050    	LDI R21,$00
0000DF  E56D    	LDI R22,$5D
0000E0  E070    	LDI R23,$00
0000E1  C004    	RJMP L53
0000E2  E145    L7:	LDI R20,$15
0000E3  E050    	LDI R21,$00
0000E4  E468    	LDI R22,$48
0000E5  E070    	LDI R23,$00
0000E6  01CE    L53:	MOVW R25:R24,R29:R28
0000E7  9601    	ADIW R25:R24,1
0000E8  D7FC    	RCALL L54
0000E9  C020    	RJMP L55
0000EA  E145    L8:	LDI R20,$15
0000EB  E050    	LDI R21,$00
0000EC  E363    	LDI R22,$33
0000ED  E070    	LDI R23,$00
0000EE  CFF7    	RJMP L53
0000EF  E145    L9:	LDI R20,$15
0000F0  E050    	LDI R21,$00
0000F1  E069    	LDI R22,$09
0000F2  E070    	LDI R23,$00
0000F3  CFF2    	RJMP L53
0000F4  E145    L10:	LDI R20,$15
0000F5  E050    	LDI R21,$00
0000F6  E16E    	LDI R22,$1E
0000F7  E070    	LDI R23,$00
0000F8  CFED    	RJMP L53
0000F9  E080    L11:	LDI R24,$00
0000FA  E090    	LDI R25,$00
0000FB  D801    	RCALL -2047
0000FC  E04A    	LDI R20,$0A
0000FD  01BE    	MOVW R23:R22,R29:R28
0000FE  5F6F    	SUBI R22,$FF
0000FF  4F7F    	SBCI R23,$FF
000100  C006    	RJMP L56
000101  D385    L12:	RCALL L43
000102  E04A    	LDI R20,$0A
000103  01BE    	MOVW R23:R22,R29:R28
000104  5F6F    	SUBI R22,$FF
000105  4F7F    	SBCI R23,$FF
000106  E090    	LDI R25,$00
000107  D77F    L56:	RCALL L57
000108  C001    	RJMP L55
000109  8219    L52:	STD Y+1,R1
00010A  8A1D    L55:	STD Y+21,R1
00010B  01CE    	MOVW R25:R24,R29:R28
00010C  9601    	ADIW R25:R24,1
00010D  D64D    	RCALL L58
00010E  EA86    	LDI R24,$A6
00010F  E090    	LDI R25,$00
000110  D655    	RCALL L41
000111  9665    	ADIW YH:YL,21
000112  B60F    	IN R0,SREG
000113  94F8    	BCLR 7
000114  BFDE    	OUT SPH,YH
000115  BE0F    	OUT SREG,R0
000116  BFCD    	OUT SPL,YL
000117  91DF    	POP YH
000118  91CF    	POP YL
000119  911F    	POP R17
00011A  910F    	POP R16
00011B  9508    	RET
00011C  930F    L112:	PUSH R16
00011D  931F    	PUSH R17
00011E  01DC    	MOVW R27:R26,R25:R24
00011F  9601    	ADIW R25:R24,1
000120  01FC    	MOVW R31:R30,R25:R24
000121  9001    L59:	LD R0,Z+
000122  2000    	TST R0
000123  F7E9    	BRNE L59
000124  9731    	SBIW ZH:ZL,1
000125  2F4E    	MOV R20,ZL
000126  1B48    	SUB R20,R24
000127  3146    	CPI R20,$16
000128  F008    	BRCS L60
000129  E145    	LDI R20,$15
00012A  91EC    L60:	LD ZL,X
00012B  2F0E    	MOV R16,ZL
00012C  E010    	LDI R17,$00
00012D  01F8    	MOVW R31:R30,R17:R16
00012E  97F0    	SBIW ZH:ZL,48
00012F  30E7    	CPI ZL,$07
000130  05F1    	CPC ZH,R1
000131  F570    	BRCC L61
000132  5EE8    	SUBI ZL,$E8
000133  4FFF    	SBCI ZH,$FF
000134  9409    	IJMP
000135  E050    L13:	LDI R21,$00
000136  E56D    	LDI R22,$5D
000137  E070    	LDI R23,$00
000138  C003    	RJMP L62
000139  E050    L14:	LDI R21,$00
00013A  E468    	LDI R22,$48
00013B  E070    	LDI R23,$00
00013C  911F    L62:	POP R17
00013D  910F    	POP R16
00013E  C7C3    	RJMP L63
00013F  E050    L15:	LDI R21,$00
000140  E363    	LDI R22,$33
000141  E070    	LDI R23,$00
000142  CFF9    	RJMP L62
000143  E050    L16:	LDI R21,$00
000144  E069    	LDI R22,$09
000145  E070    	LDI R23,$00
000146  CFF5    	RJMP L62
000147  E050    L17:	LDI R21,$00
000148  E16E    	LDI R22,$1E
000149  E070    	LDI R23,$00
00014A  CFF1    	RJMP L62
00014B  D6F7    L18:	RCALL L64
00014C  018C    	MOVW R17:R16,R25:R24
00014D  01BC    	MOVW R23:R22,R25:R24
00014E  E080    	LDI R24,$00
00014F  E090    	LDI R25,$00
000150  D7C8    	RCALL L65
000151  01B8    	MOVW R23:R22,R17:R16
000152  E080    	LDI R24,$00
000153  E090    	LDI R25,$00
000154  E120    	LDI R18,$10
000155  E03E    	LDI R19,$0E
000156  E040    	LDI R20,$00
000157  E050    	LDI R21,$00
000158  D6AF    	RCALL L66
000159  911F    	POP R17
00015A  910F    	POP R16
00015B  C270    	RJMP L67
00015C  D6E6    L19:	RCALL L64
00015D  911F    	POP R17
00015E  910F    	POP R16
00015F  C339    	RJMP L68
000160  EA83    L61:	LDI R24,$A3
000161  E090    	LDI R25,$00
000162  D603    	RCALL L41
000163  EA80    	LDI R24,$A0
000164  E090    	LDI R25,$00
000165  911F    	POP R17
000166  910F    	POP R16
000167  C5FE    	RJMP L41
000168  2F98    L80:	MOV R25,R24
000169  9582    	SWAP R24
00016A  708F    	ANDI R24,$0F
00016B  E06A    	LDI R22,$0A
00016C  D692    	RCALL L69
00016D  709F    	ANDI R25,$0F
00016E  0F89    	ADD R24,R25
00016F  9508    	RET
000170  92CF    L199:	PUSH R12
000171  92DF    	PUSH R13
000172  92EF    	PUSH R14
000173  92FF    	PUSH R15
000174  930F    	PUSH R16
000175  931F    	PUSH R17
000176  93CF    	PUSH YL
000177  93DF    	PUSH YH
000178  B7CD    	IN YL,SPL
000179  B7DE    	IN YH,SPH
00017A  97A6    	SBIW YH:YL,38
00017B  B60F    	IN R0,SREG
00017C  94F8    	BCLR 7
00017D  BFDE    	OUT SPH,YH
00017E  BE0F    	OUT SREG,R0
00017F  BFCD    	OUT SPL,YL
000180  018C    	MOVW R17:R16,R25:R24
000181  E38C    	LDI R24,$3C
000182  9380    	STS $0067,R24
000183  0067
000184  01F8    	MOVW R31:R30,R17:R16
000185  8180    	LD R24,Z
000186  E090    	LDI R25,$00
000187  D6F7    	RCALL L70
000188  5481    	SUBI R24,$41
000189  0991    	SBC R25,R1
00018A  3184    	CPI R24,$14
00018B  0591    	CPC R25,R1
00018C  F008    	BRCS L71
00018D  C1C2    	RJMP L29
00018E  5E81    L71:	SUBI R24,$E1
00018F  4F9F    	SBCI R25,$FF
000190  938F    	PUSH R24
000191  939F    	PUSH R25
000192  9508    	RET
000193  01F8    L20:	MOVW R31:R30,R17:R16
000194  8181    	LDD R24,Z+1
000195  3582    	CPI R24,$52
000196  F469    	BRNE L72
000197  D23D    	RCALL L73
000198  E120    	LDI R18,$10
000199  E03E    	LDI R19,$0E
00019A  E040    	LDI R20,$00
00019B  E050    	LDI R21,$00
00019C  D684    	RCALL L74
00019D  01CA    	MOVW R25:R24,R21:R20
00019E  01B9    	MOVW R23:R22,R19:R18
00019F  D22C    	RCALL L67
0001A0  D23D    	RCALL L75
0001A1  E98E    	LDI R24,$9E
0001A2  E090    	LDI R25,$00
0001A3  C1B1    	RJMP L76
0001A4  E98B    L72:	LDI R24,$9B
0001A5  E090    	LDI R25,$00
0001A6  C1AE    	RJMP L76
0001A7  01F8    L21:	MOVW R31:R30,R17:R16
0001A8  01DE    	MOVW R27:R26,R29:R28
0001A9  9611    	ADIW XH:XL,1
0001AA  0198    	MOVW R19:R18,R17:R16
0001AB  5E2B    	SUBI R18,$EB
0001AC  4F3F    	SBCI R19,$FF
0001AD  01AD    	MOVW R21:R20,R27:R26
0001AE  8182    L77:	LDD R24,Z+2
0001AF  2F98    	MOV R25,R24
0001B0  9592    	SWAP R25
0001B1  7F90    	ANDI R25,$F0
0001B2  8183    	LDD R24,Z+3
0001B3  5380    	SUBI R24,$30
0001B4  0F89    	ADD R24,R25
0001B5  938D    	ST X+,R24
0001B6  9633    	ADIW ZH:ZL,3
0001B7  172E    	CP R18,ZL
0001B8  073F    	CPC R19,ZH
0001B9  F7A1    	BRNE L77
0001BA  E067    	LDI R22,$07
0001BB  E284    	LDI R24,$24
0001BC  D347    	RCALL L78
0001BD  E989    	LDI R24,$99
0001BE  E090    	LDI R25,$00
0001BF  D5A6    	RCALL L41
0001C0  E986    	LDI R24,$96
0001C1  E090    	LDI R25,$00
0001C2  C192    	RJMP L76
0001C3  01AE    L22:	MOVW R21:R20,R29:R28
0001C4  5F4F    	SUBI R20,$FF
0001C5  4F5F    	SBCI R21,$FF
0001C6  E067    	LDI R22,$07
0001C7  E284    	LDI R24,$24
0001C8  D358    	RCALL L79
0001C9  E483    	LDI R24,$43
0001CA  D562    	RCALL L42
0001CB  018E    	MOVW R17:R16,R29:R28
0001CC  5F0F    	SUBI R16,$FF
0001CD  4F1F    	SBCI R17,$FF
0001CE  016E    	MOVW R13:R12,R29:R28
0001CF  E0F8    	LDI ZH,$08
0001D0  0ECF    	ADD R12,ZH
0001D1  1CD1    	ADC R13,R1
0001D2  01F8    L82:	MOVW R31:R30,R17:R16
0001D3  9181    	LD R24,Z+
0001D4  018F    	MOVW R17:R16,R31:R30
0001D5  DF92    	RCALL L80
0001D6  2EF8    	MOV R15,R24
0001D7  E38A    	LDI R24,$3A
0001D8  D554    	RCALL L42
0001D9  E04A    	LDI R20,$0A
0001DA  01BE    	MOVW R23:R22,R29:R28
0001DB  5D6F    	SUBI R22,$DF
0001DC  4F7F    	SBCI R23,$FF
0001DD  2D8F    	MOV R24,R15
0001DE  E090    	LDI R25,$00
0001DF  D6A7    	RCALL L57
0001E0  E0F9    	LDI ZH,$09
0001E1  15FF    	CP ZH,R15
0001E2  F010    	BRCS L81
0001E3  E380    	LDI R24,$30
0001E4  D548    	RCALL L42
0001E5  01CE    L81:	MOVW R25:R24,R29:R28
0001E6  9681    	ADIW R25:R24,33
0001E7  D573    	RCALL L58
0001E8  150C    	CP R16,R12
0001E9  051D    	CPC R17,R13
0001EA  F739    	BRNE L82
0001EB  E983    	LDI R24,$93
0001EC  E090    	LDI R25,$00
0001ED  C167    	RJMP L76
0001EE  E787    L23:	LDI R24,$77
0001EF  E090    	LDI R25,$00
0001F0  D575    	RCALL L41
0001F1  D298    	RCALL L47
0001F2  E04A    	LDI R20,$0A
0001F3  01BE    	MOVW R23:R22,R29:R28
0001F4  5F6F    	SUBI R22,$FF
0001F5  4F7F    	SBCI R23,$FF
0001F6  E090    	LDI R25,$00
0001F7  D6C4    	RCALL L83
0001F8  01CE    	MOVW R25:R24,R29:R28
0001F9  9601    	ADIW R25:R24,1
0001FA  D560    	RCALL L58
0001FB  E784    	LDI R24,$74
0001FC  E090    	LDI R25,$00
0001FD  D568    	RCALL L41
0001FE  E000    	LDI R16,$00
0001FF  E010    	LDI R17,$00
000200  D289    L90:	RCALL L47
000201  E090    	LDI R25,$00
000202  0F88    	LSL R24
000203  1F99    	ROL R25
000204  0F88    	LSL R24
000205  1F99    	ROL R25
000206  1708    	CP R16,R24
000207  0719    	CPC R17,R25
000208  F008    	BRCS L84
000209  C14C    	RJMP L85
00020A  01F8    L84:	MOVW R31:R30,R17:R16
00020B  5BE2    	SUBI ZL,$B2
00020C  40F0    	SBCI ZH,$00
00020D  016F    	MOVW R13:R12,R31:R30
00020E  2CE1    	MOV R14,R1
00020F  2CF1    	MOV R15,R1
000210  380C    L89:	CPI R16,$8C
000211  E081    	LDI R24,$01
000212  0718    	CPC R17,R24
000213  F438    	BRCC L86
000214  01C8    	MOVW R25:R24,R17:R16
000215  0D8E    	ADD R24,R14
000216  1D9F    	ADC R25,R15
000217  588C    	SUBI R24,$8C
000218  4F9F    	SBCI R25,$FF
000219  D6DB    	RCALL L87
00021A  C002    	RJMP L88
00021B  01F6    L86:	MOVW R31:R30,R13:R12
00021C  8180    	LD R24,Z
00021D  E140    L88:	LDI R20,$10
00021E  01BE    	MOVW R23:R22,R29:R28
00021F  5F6F    	SUBI R22,$FF
000220  4F7F    	SBCI R23,$FF
000221  E090    	LDI R25,$00
000222  D699    	RCALL L83
000223  01CE    	MOVW R25:R24,R29:R28
000224  9601    	ADIW R25:R24,1
000225  D535    	RCALL L58
000226  E38A    	LDI R24,$3A
000227  D505    	RCALL L42
000228  EFFF    	LDI ZH,$FF
000229  1AEF    	SUB R14,ZH
00022A  0AFF    	SBC R15,ZH
00022B  EF8F    	LDI R24,$FF
00022C  1AC8    	SUB R12,R24
00022D  0AD8    	SBC R13,R24
00022E  E094    	LDI R25,$04
00022F  16E9    	CP R14,R25
000230  04F1    	CPC R15,R1
000231  F6F1    	BRNE L89
000232  5F0C    	SUBI R16,$FC
000233  4F1F    	SBCI R17,$FF
000234  E781    	LDI R24,$71
000235  E090    	LDI R25,$00
000236  D52F    	RCALL L41
000237  CFC8    	RJMP L90
000238  01F8    L24:	MOVW R31:R30,R17:R16
000239  8181    	LDD R24,Z+1
00023A  3582    	CPI R24,$52
00023B  F571    	BRNE L91
00023C  E002    	LDI R16,$02
00023D  E010    	LDI R17,$00
00023E  7011    	ANDI R17,$01
00023F  1501    	CP R16,R1
000240  0511    	CPC R17,R1
000241  F419    	BRNE L92
000242  5F09    L96:	SUBI R16,$F9
000243  4F1F    	SBCI R17,$FF
000244  C00C    	RJMP L93
000245  2CE1    L92:	MOV R14,R1
000246  2CF1    	MOV R15,R1
000247  E060    L95:	LDI R22,$00
000248  01C7    	MOVW R25:R24,R15:R14
000249  D6C1    	RCALL L94
00024A  EFFF    	LDI ZH,$FF
00024B  1AEF    	SUB R14,ZH
00024C  0AFF    	SBC R15,ZH
00024D  150E    	CP R16,R14
00024E  051F    	CPC R17,R15
00024F  F7B9    	BRNE L95
000250  CFF1    	RJMP L96
000251  1501    L93:	CP R16,R1
000252  E082    	LDI R24,$02
000253  0718    	CPC R17,R24
000254  F430    	BRCC L97
000255  E060    	LDI R22,$00
000256  01C8    	MOVW R25:R24,R17:R16
000257  D6B3    	RCALL L94
000258  5F0F    	SUBI R16,$FF
000259  4F1F    	SBCI R17,$FF
00025A  CFF6    	RJMP L93
00025B  E68F    L97:	LDI R24,$6F
00025C  E090    	LDI R25,$00
00025D  D508    	RCALL L41
00025E  E68C    	LDI R24,$6C
00025F  E090    	LDI R25,$00
000260  D505    	RCALL L41
000261  E098    	LDI R25,$08
000262  E188    	LDI R24,$18
000263  B60F    	IN R0,SREG
000264  94F8    	BCLR 7
000265  95A8    	WDR
000266  BD81    	OUT WDTCSR,R24
000267  BE0F    	OUT SREG,R0
000268  BD91    	OUT WDTCSR,R25
000269  CFFF    L98:	RJMP L98
00026A  E980    L91:	LDI R24,$90
00026B  E090    	LDI R25,$00
00026C  C0E8    	RJMP L76
00026D  01F8    L25:	MOVW R31:R30,R17:R16
00026E  01DE    	MOVW R27:R26,R29:R28
00026F  9611    	ADIW XH:XL,1
000270  01A8    	MOVW R21:R20,R17:R16
000271  5E4B    	SUBI R20,$EB
000272  4F5F    	SBCI R21,$FF
000273  01CD    	MOVW R25:R24,R27:R26
000274  8122    L99:	LDD R18,Z+2
000275  2F32    	MOV R19,R18
000276  9532    	SWAP R19
000277  7F30    	ANDI R19,$F0
000278  8123    	LDD R18,Z+3
000279  5320    	SUBI R18,$30
00027A  0F23    	ADD R18,R19
00027B  932D    	ST X+,R18
00027C  9633    	ADIW ZH:ZL,3
00027D  174E    	CP R20,ZL
00027E  075F    	CPC R21,ZH
00027F  F7A1    	BRNE L99
000280  D220    	RCALL L100
000281  E88E    	LDI R24,$8E
000282  E090    	LDI R25,$00
000283  D4E2    	RCALL L41
000284  E88B    	LDI R24,$8B
000285  E090    	LDI R25,$00
000286  C0CE    	RJMP L76
000287  01C8    L26:	MOVW R25:R24,R17:R16
000288  9601    	ADIW R25:R24,1
000289  DE32    	RCALL L101
00028A  C0CB    	RJMP L85
00028B  01CE    L27:	MOVW R25:R24,R29:R28
00028C  9601    	ADIW R25:R24,1
00028D  D226    	RCALL L102
00028E  E488    	LDI R24,$48
00028F  D49D    	RCALL L42
000290  018E    	MOVW R17:R16,R29:R28
000291  5F0F    	SUBI R16,$FF
000292  4F1F    	SBCI R17,$FF
000293  016E    	MOVW R13:R12,R29:R28
000294  E098    	LDI R25,$08
000295  0EC9    	ADD R12,R25
000296  1CD1    	ADC R13,R1
000297  01F8    L104:	MOVW R31:R30,R17:R16
000298  9181    	LD R24,Z+
000299  018F    	MOVW R17:R16,R31:R30
00029A  DECD    	RCALL L80
00029B  2EF8    	MOV R15,R24
00029C  E38A    	LDI R24,$3A
00029D  D48F    	RCALL L42
00029E  E04A    	LDI R20,$0A
00029F  01BE    	MOVW R23:R22,R29:R28
0002A0  5D6F    	SUBI R22,$DF
0002A1  4F7F    	SBCI R23,$FF
0002A2  2D8F    	MOV R24,R15
0002A3  E090    	LDI R25,$00
0002A4  D5E2    	RCALL L57
0002A5  E0F9    	LDI ZH,$09
0002A6  15FF    	CP ZH,R15
0002A7  F010    	BRCS L103
0002A8  E380    	LDI R24,$30
0002A9  D483    	RCALL L42
0002AA  01CE    L103:	MOVW R25:R24,R29:R28
0002AB  9681    	ADIW R25:R24,33
0002AC  D4AE    	RCALL L58
0002AD  150C    	CP R16,R12
0002AE  051D    	CPC R17,R13
0002AF  F739    	BRNE L104
0002B0  E888    	LDI R24,$88
0002B1  E090    	LDI R25,$00
0002B2  C0A2    	RJMP L76
0002B3  D239    L28:	RCALL L105
0002B4  C0A1    	RJMP L85
0002B5  E047    L30:	LDI R20,$07
0002B6  E050    	LDI R21,$00
0002B7  E062    	LDI R22,$02
0002B8  E070    	LDI R23,$00
0002B9  01CE    	MOVW R25:R24,R29:R28
0002BA  9601    	ADIW R25:R24,1
0002BB  D629    	RCALL L54
0002BC  E48D    	LDI R24,$4D
0002BD  D46F    	RCALL L42
0002BE  018E    	MOVW R17:R16,R29:R28
0002BF  5F0F    	SUBI R16,$FF
0002C0  4F1F    	SBCI R17,$FF
0002C1  016E    	MOVW R13:R12,R29:R28
0002C2  E088    	LDI R24,$08
0002C3  0EC8    	ADD R12,R24
0002C4  1CD1    	ADC R13,R1
0002C5  01F8    L107:	MOVW R31:R30,R17:R16
0002C6  9181    	LD R24,Z+
0002C7  018F    	MOVW R17:R16,R31:R30
0002C8  DE9F    	RCALL L80
0002C9  2EF8    	MOV R15,R24
0002CA  E38A    	LDI R24,$3A
0002CB  D461    	RCALL L42
0002CC  E04A    	LDI R20,$0A
0002CD  01BE    	MOVW R23:R22,R29:R28
0002CE  5D6F    	SUBI R22,$DF
0002CF  4F7F    	SBCI R23,$FF
0002D0  2D8F    	MOV R24,R15
0002D1  E090    	LDI R25,$00
0002D2  D5B4    	RCALL L57
0002D3  E0F9    	LDI ZH,$09
0002D4  15FF    	CP ZH,R15
0002D5  F010    	BRCS L106
0002D6  E380    	LDI R24,$30
0002D7  D455    	RCALL L42
0002D8  01CE    L106:	MOVW R25:R24,R29:R28
0002D9  9681    	ADIW R25:R24,33
0002DA  D480    	RCALL L58
0002DB  150C    	CP R16,R12
0002DC  051D    	CPC R17,R13
0002DD  F739    	BRNE L107
0002DE  E885    	LDI R24,$85
0002DF  E090    	LDI R25,$00
0002E0  C074    	RJMP L76
0002E1  01AE    L31:	MOVW R21:R20,R29:R28
0002E2  5F4F    	SUBI R20,$FF
0002E3  4F5F    	SBCI R21,$FF
0002E4  E067    	LDI R22,$07
0002E5  E284    	LDI R24,$24
0002E6  D23A    	RCALL L79
0002E7  8189    	LDD R24,Y+1
0002E8  778F    	ANDI R24,$7F
0002E9  8389    	STD Y+1,R24
0002EA  E047    	LDI R20,$07
0002EB  E050    	LDI R21,$00
0002EC  E062    	LDI R22,$02
0002ED  E070    	LDI R23,$00
0002EE  01CE    	MOVW R25:R24,R29:R28
0002EF  9601    	ADIW R25:R24,1
0002F0  D611    	RCALL L63
0002F1  E883    	LDI R24,$83
0002F2  E090    	LDI R25,$00
0002F3  D472    	RCALL L41
0002F4  E880    	LDI R24,$80
0002F5  E090    	LDI R25,$00
0002F6  C05E    	RJMP L76
0002F7  E689    L32:	LDI R24,$69
0002F8  E090    	LDI R25,$00
0002F9  D46C    	RCALL L41
0002FA  D154    	RCALL L108
0002FB  E04A    	LDI R20,$0A
0002FC  01BE    	MOVW R23:R22,R29:R28
0002FD  5F6F    	SUBI R22,$FF
0002FE  4F7F    	SBCI R23,$FF
0002FF  E090    	LDI R25,$00
000300  D5BB    	RCALL L83
000301  01CE    	MOVW R25:R24,R29:R28
000302  9601    	ADIW R25:R24,1
000303  D457    	RCALL L58
000304  E38A    	LDI R24,$3A
000305  D427    	RCALL L42
000306  D183    	RCALL L47
000307  E04A    	LDI R20,$0A
000308  01BE    	MOVW R23:R22,R29:R28
000309  5F6F    	SUBI R22,$FF
00030A  4F7F    	SBCI R23,$FF
00030B  E090    	LDI R25,$00
00030C  D5AF    	RCALL L83
00030D  01CE    	MOVW R25:R24,R29:R28
00030E  9601    	ADIW R25:R24,1
00030F  D44B    	RCALL L58
000310  E38A    	LDI R24,$3A
000311  D41B    	RCALL L42
000312  D1AC    	RCALL L49
000313  E02A    	LDI R18,$0A
000314  01AE    	MOVW R21:R20,R29:R28
000315  5F4F    	SUBI R20,$FF
000316  4F5F    	SBCI R21,$FF
000317  D583    	RCALL L109
000318  01CE    	MOVW R25:R24,R29:R28
000319  9601    	ADIW R25:R24,1
00031A  D440    	RCALL L58
00031B  E38A    	LDI R24,$3A
00031C  D410    	RCALL L42
00031D  D0B7    	RCALL L73
00031E  E02A    	LDI R18,$0A
00031F  01AE    	MOVW R21:R20,R29:R28
000320  5F4F    	SUBI R20,$FF
000321  4F5F    	SBCI R21,$FF
000322  D578    	RCALL L109
000323  01CE    	MOVW R25:R24,R29:R28
000324  9601    	ADIW R25:R24,1
000325  D435    	RCALL L58
000326  E38A    	LDI R24,$3A
000327  D405    	RCALL L42
000328  D1BB    	RCALL L50
000329  E02A    	LDI R18,$0A
00032A  01AE    	MOVW R21:R20,R29:R28
00032B  5F4F    	SUBI R20,$FF
00032C  4F5F    	SBCI R21,$FF
00032D  D56D    	RCALL L109
00032E  01CE    	MOVW R25:R24,R29:R28
00032F  9601    	ADIW R25:R24,1
000330  D42A    	RCALL L58
000331  E38A    	LDI R24,$3A
000332  D3FA    	RCALL L42
000333  D112    	RCALL L110
000334  E02A    	LDI R18,$0A
000335  01AE    	MOVW R21:R20,R29:R28
000336  5F4F    	SUBI R20,$FF
000337  4F5F    	SBCI R21,$FF
000338  D562    	RCALL L109
000339  01CE    	MOVW R25:R24,R29:R28
00033A  9601    	ADIW R25:R24,1
00033B  D41F    	RCALL L58
00033C  E38A    	LDI R24,$3A
00033D  D3EF    	RCALL L42
00033E  D0FE    	RCALL L111
00033F  E02A    	LDI R18,$0A
000340  01AE    	MOVW R21:R20,R29:R28
000341  5F4F    	SUBI R20,$FF
000342  4F5F    	SBCI R21,$FF
000343  D557    	RCALL L109
000344  01CE    	MOVW R25:R24,R29:R28
000345  9601    	ADIW R25:R24,1
000346  D414    	RCALL L58
000347  E686    	LDI R24,$66
000348  E090    	LDI R25,$00
000349  C00B    	RJMP L76
00034A  01C8    L33:	MOVW R25:R24,R17:R16
00034B  9601    	ADIW R25:R24,1
00034C  DDCF    	RCALL L112
00034D  C008    	RJMP L85
00034E  DD38    L34:	RCALL L113
00034F  C006    	RJMP L85
000350  E78D    L29:	LDI R24,$7D
000351  E090    	LDI R25,$00
000352  D413    	RCALL L41
000353  E78A    	LDI R24,$7A
000354  E090    	LDI R25,$00
000355  D410    L76:	RCALL L41
000356  96A6    L85:	ADIW YH:YL,38
000357  B60F    	IN R0,SREG
000358  94F8    	BCLR 7
000359  BFDE    	OUT SPH,YH
00035A  BE0F    	OUT SREG,R0
00035B  BFCD    	OUT SPL,YL
00035C  91DF    	POP YH
00035D  91CF    	POP YL
00035E  911F    	POP R17
00035F  910F    	POP R16
000360  90FF    	POP R15
000361  90EF    	POP R14
000362  90DF    	POP R13
000363  90CF    	POP R12
000364  9508    	RET
000365  930F    L119:	PUSH R16
000366  931F    	PUSH R17
000367  93CF    	PUSH YL
000368  93DF    	PUSH YH
000369  B7CD    	IN YL,SPL
00036A  B7DE    	IN YH,SPH
00036B  9727    	SBIW YH:YL,7
00036C  B60F    	IN R0,SREG
00036D  94F8    	BCLR 7
00036E  BFDE    	OUT SPH,YH
00036F  BE0F    	OUT SREG,R0
000370  BFCD    	OUT SPL,YL
000371  019C    	MOVW R19:R18,R25:R24
000372  E6E0    	LDI ZL,$60
000373  E0F0    	LDI ZH,$00
000374  018E    	MOVW R17:R16,R29:R28
000375  5F0F    	SUBI R16,$FF
000376  4F1F    	SBCI R17,$FF
000377  E647    	LDI R20,$67
000378  E050    	LDI R21,$00
000379  01D9    L114:	MOVW R27:R26,R19:R18
00037A  919D    	LD R25,X+
00037B  019D    	MOVW R19:R18,R27:R26
00037C  9171    	LD R23,Z+
00037D  2F89    	MOV R24,R25
00037E  9582    	SWAP R24
00037F  708F    	ANDI R24,$0F
000380  E06A    	LDI R22,$0A
000381  D47D    	RCALL L69
000382  709F    	ANDI R25,$0F
000383  1B97    	SUB R25,R23
000384  0F89    	ADD R24,R25
000385  01D8    	MOVW R27:R26,R17:R16
000386  938D    	ST X+,R24
000387  018D    	MOVW R17:R16,R27:R26
000388  174E    	CP R20,ZL
000389  075F    	CPC R21,ZH
00038A  F771    	BRNE L114
00038B  816F    	LDD R22,Y+7
00038C  E070    	LDI R23,$00
00038D  E080    	LDI R24,$00
00038E  E090    	LDI R25,$00
00038F  E02C    	LDI R18,$0C
000390  E030    	LDI R19,$00
000391  E040    	LDI R20,$00
000392  E050    	LDI R21,$00
000393  D474    	RCALL L66
000394  812E    	LDD R18,Y+6
000395  0F62    	ADD R22,R18
000396  1D71    	ADC R23,R1
000397  1D81    	ADC R24,R1
000398  1D91    	ADC R25,R1
000399  E12E    	LDI R18,$1E
00039A  E030    	LDI R19,$00
00039B  E040    	LDI R20,$00
00039C  E050    	LDI R21,$00
00039D  D46A    	RCALL L66
00039E  812C    	LDD R18,Y+4
00039F  0F62    	ADD R22,R18
0003A0  1D71    	ADC R23,R1
0003A1  1D81    	ADC R24,R1
0003A2  1D91    	ADC R25,R1
0003A3  E128    	LDI R18,$18
0003A4  E030    	LDI R19,$00
0003A5  E040    	LDI R20,$00
0003A6  E050    	LDI R21,$00
0003A7  D460    	RCALL L66
0003A8  812B    	LDD R18,Y+3
0003A9  0F62    	ADD R22,R18
0003AA  1D71    	ADC R23,R1
0003AB  1D81    	ADC R24,R1
0003AC  1D91    	ADC R25,R1
0003AD  E32C    	LDI R18,$3C
0003AE  E030    	LDI R19,$00
0003AF  E040    	LDI R20,$00
0003B0  E050    	LDI R21,$00
0003B1  D456    	RCALL L66
0003B2  812A    	LDD R18,Y+2
0003B3  0F62    	ADD R22,R18
0003B4  1D71    	ADC R23,R1
0003B5  1D81    	ADC R24,R1
0003B6  1D91    	ADC R25,R1
0003B7  E32C    	LDI R18,$3C
0003B8  E030    	LDI R19,$00
0003B9  E040    	LDI R20,$00
0003BA  E050    	LDI R21,$00
0003BB  D44C    	RCALL L66
0003BC  8129    	LDD R18,Y+1
0003BD  0F62    	ADD R22,R18
0003BE  1D71    	ADC R23,R1
0003BF  1D81    	ADC R24,R1
0003C0  1D91    	ADC R25,R1
0003C1  9627    	ADIW YH:YL,7
0003C2  B60F    	IN R0,SREG
0003C3  94F8    	BCLR 7
0003C4  BFDE    	OUT SPH,YH
0003C5  BE0F    	OUT SREG,R0
0003C6  BFCD    	OUT SPL,YL
0003C7  91DF    	POP YH
0003C8  91CF    	POP YL
0003C9  911F    	POP R17
0003CA  910F    	POP R16
0003CB  9508    	RET
0003CC  9360    L67:	STS $006C,R22
0003CD  006C
0003CE  9370    	STS $006D,R23
0003CF  006D
0003D0  9380    	STS $006E,R24
0003D1  006E
0003D2  9390    	STS $006F,R25
0003D3  006F
0003D4  9508    	RET
0003D5  9160    L73:	LDS R22,$006C
0003D6  006C
0003D7  9170    	LDS R23,$006D
0003D8  006D
0003D9  9180    	LDS R24,$006E
0003DA  006E
0003DB  9190    	LDS R25,$006F
0003DC  006F
0003DD  9508    	RET
0003DE  928F    L75:	PUSH R8
0003DF  929F    	PUSH R9
0003E0  92AF    	PUSH R10
0003E1  92BF    	PUSH R11
0003E2  92CF    	PUSH R12
0003E3  92DF    	PUSH R13
0003E4  92EF    	PUSH R14
0003E5  92FF    	PUSH R15
0003E6  E783    	LDI R24,$73
0003E7  E090    	LDI R25,$00
0003E8  D50C    	RCALL L87
0003E9  9080    	LDS R8,$006C
0003EA  006C
0003EB  9090    	LDS R9,$006D
0003EC  006D
0003ED  90A0    	LDS R10,$006E
0003EE  006E
0003EF  90B0    	LDS R11,$006F
0003F0  006F
0003F1  2F68    	MOV R22,R24
0003F2  E070    	LDI R23,$00
0003F3  E080    	LDI R24,$00
0003F4  E090    	LDI R25,$00
0003F5  01A5    	MOVW R21:R20,R11:R10
0003F6  0194    	MOVW R19:R18,R9:R8
0003F7  D410    	RCALL L66
0003F8  90C0    	LDS R12,$0068
0003F9  0068
0003FA  90D0    	LDS R13,$0069
0003FB  0069
0003FC  90E0    	LDS R14,$006A
0003FD  006A
0003FE  90F0    	LDS R15,$006B
0003FF  006B
000400  0EC6    	ADD R12,R22
000401  1ED7    	ADC R13,R23
000402  1EE8    	ADC R14,R24
000403  1EF9    	ADC R15,R25
000404  92C0    	STS $00BE,R12
000405  00BE
000406  92D0    	STS $00BF,R13
000407  00BF
000408  92E0    	STS $00C0,R14
000409  00C0
00040A  92F0    	STS $00C1,R15
00040B  00C1
00040C  E525    	LDI R18,$55
00040D  E030    	LDI R19,$00
00040E  E040    	LDI R20,$00
00040F  E050    	LDI R21,$00
000410  01C5    	MOVW R25:R24,R11:R10
000411  01B4    	MOVW R23:R22,R9:R8
000412  D3F5    	RCALL L66
000413  27BB    	CLR XH
000414  2FA9    	MOV XL,R25
000415  2F98    	MOV R25,R24
000416  2F87    	MOV R24,R23
000417  0EC8    	ADD R12,R24
000418  1ED9    	ADC R13,R25
000419  1EEA    	ADC R14,XL
00041A  1EFB    	ADC R15,XH
00041B  92C0    	STS $00D4,R12
00041C  00D4
00041D  92D0    	STS $00D5,R13
00041E  00D5
00041F  92E0    	STS $00D6,R14
000420  00D6
000421  92F0    	STS $00D7,R15
000422  00D7
000423  90FF    	POP R15
000424  90EF    	POP R14
000425  90DF    	POP R13
000426  90CF    	POP R12
000427  90BF    	POP R11
000428  90AF    	POP R10
000429  909F    	POP R9
00042A  908F    	POP R8
00042B  9508    	RET
00042C  93CF    L140:	PUSH YL
00042D  E783    	LDI R24,$73
00042E  E090    	LDI R25,$00
00042F  D4C5    	RCALL L87
000430  2FC8    	MOV YL,R24
000431  E782    	LDI R24,$72
000432  E090    	LDI R25,$00
000433  D4C1    	RCALL L87
000434  17C8    	CP YL,R24
000435  F428    	BRCC L115
000436  E061    	LDI R22,$01
000437  0F6C    	ADD R22,YL
000438  E783    	LDI R24,$73
000439  E090    	LDI R25,$00
00043A  D4D0    	RCALL L94
00043B  91CF    L115:	POP YL
00043C  CFA1    	RJMP L75
00043D  9160    L111:	LDS R22,$00D4
00043E  00D4
00043F  9170    	LDS R23,$00D5
000440  00D5
000441  9180    	LDS R24,$00D6
000442  00D6
000443  9190    	LDS R25,$00D7
000444  00D7
000445  9508    	RET
000446  9160    L110:	LDS R22,$00BE
000447  00BE
000448  9170    	LDS R23,$00BF
000449  00BF
00044A  9180    	LDS R24,$00C0
00044B  00C0
00044C  9190    	LDS R25,$00C1
00044D  00C1
00044E  9508    	RET
00044F  930F    L108:	PUSH R16
000450  931F    	PUSH R17
000451  E081    	LDI R24,$01
000452  9100    	LDS R16,$00C2
000453  00C2
000454  9110    	LDS R17,$00C3
000455  00C3
000456  9120    	LDS R18,$00C4
000457  00C4
000458  9130    	LDS R19,$00C5
000459  00C5
00045A  9140    	LDS R20,$00BE
00045B  00BE
00045C  9150    	LDS R21,$00BF
00045D  00BF
00045E  9160    	LDS R22,$00C0
00045F  00C0
000460  9170    	LDS R23,$00C1
000461  00C1
000462  1740    	CP R20,R16
000463  0751    	CPC R21,R17
000464  0762    	CPC R22,R18
000465  0773    	CPC R23,R19
000466  F008    	BRCS L116
000467  E080    	LDI R24,$00
000468  911F    L116:	POP R17
000469  910F    	POP R16
00046A  9508    	RET
00046B  930F    L155:	PUSH R16
00046C  931F    	PUSH R17
00046D  E081    	LDI R24,$01
00046E  9100    	LDS R16,$00C2
00046F  00C2
000470  9110    	LDS R17,$00C3
000471  00C3
000472  9120    	LDS R18,$00C4
000473  00C4
000474  9130    	LDS R19,$00C5
000475  00C5
000476  9140    	LDS R20,$00D4
000477  00D4
000478  9150    	LDS R21,$00D5
000479  00D5
00047A  9160    	LDS R22,$00D6
00047B  00D6
00047C  9170    	LDS R23,$00D7
00047D  00D7
00047E  1740    	CP R20,R16
00047F  0751    	CPC R21,R17
000480  0762    	CPC R22,R18
000481  0773    	CPC R23,R19
000482  F008    	BRCS L117
000483  E080    	LDI R24,$00
000484  911F    L117:	POP R17
000485  910F    	POP R16
000486  9508    	RET
000487  E782    L43:	LDI R24,$72
000488  E090    	LDI R25,$00
000489  C46B    	RJMP L87
00048A  E783    L47:	LDI R24,$73
00048B  E090    	LDI R25,$00
00048C  C468    	RJMP L87
00048D  93CF    L149:	PUSH YL
00048E  E782    	LDI R24,$72
00048F  E090    	LDI R25,$00
000490  D464    	RCALL L87
000491  2FC8    	MOV YL,R24
000492  E783    	LDI R24,$73
000493  E090    	LDI R25,$00
000494  D460    	RCALL L87
000495  1BC8    	SUB YL,R24
000496  2F8C    	MOV R24,YL
000497  91CF    	POP YL
000498  9508    	RET
000499  2F68    L68:	MOV R22,R24
00049A  E782    	LDI R24,$72
00049B  E090    	LDI R25,$00
00049C  D46E    	RCALL L94
00049D  E060    	LDI R22,$00
00049E  E783    	LDI R24,$73
00049F  E090    	LDI R25,$00
0004A0  C46A    	RJMP L94
0004A1  01FC    L100:	MOVW R31:R30,R25:R24
0004A2  ECA6    	LDI XL,$C6
0004A3  E0B0    	LDI XH,$00
0004A4  9121    L118:	LD R18,Z+
0004A5  932D    	ST X+,R18
0004A6  E020    	LDI R18,$00
0004A7  3CAD    	CPI XL,$CD
0004A8  07B2    	CPC XH,R18
0004A9  F7D1    	BRNE L118
0004AA  DEBA    	RCALL L119
0004AB  9360    	STS $0068,R22
0004AC  0068
0004AD  9370    	STS $0069,R23
0004AE  0069
0004AF  9380    	STS $006A,R24
0004B0  006A
0004B1  9390    	STS $006B,R25
0004B2  006B
0004B3  9508    	RET
0004B4  ECE6    L102:	LDI ZL,$C6
0004B5  E0F0    	LDI ZH,$00
0004B6  9121    L120:	LD R18,Z+
0004B7  01DC    	MOVW R27:R26,R25:R24
0004B8  932D    	ST X+,R18
0004B9  01CD    	MOVW R25:R24,R27:R26
0004BA  E0B0    	LDI XH,$00
0004BB  3CED    	CPI ZL,$CD
0004BC  07FB    	CPC ZH,XH
0004BD  F7C1    	BRNE L120
0004BE  9508    	RET
0004BF  9160    L49:	LDS R22,$0068
0004C0  0068
0004C1  9170    	LDS R23,$0069
0004C2  0069
0004C3  9180    	LDS R24,$006A
0004C4  006A
0004C5  9190    	LDS R25,$006B
0004C6  006B
0004C7  9508    	RET
0004C8  EC4D    L154:	LDI R20,$CD
0004C9  E050    	LDI R21,$00
0004CA  E067    	LDI R22,$07
0004CB  E284    	LDI R24,$24
0004CC  D054    	RCALL L79
0004CD  EC8D    	LDI R24,$CD
0004CE  E090    	LDI R25,$00
0004CF  DE95    	RCALL L119
0004D0  9360    	STS $00C2,R22
0004D1  00C2
0004D2  9370    	STS $00C3,R23
0004D3  00C3
0004D4  9380    	STS $00C4,R24
0004D5  00C4
0004D6  9390    	STS $00C5,R25
0004D7  00C5
0004D8  9508    	RET
0004D9  ECED    L142:	LDI ZL,$CD
0004DA  E0F0    	LDI ZH,$00
0004DB  9121    L121:	LD R18,Z+
0004DC  01DC    	MOVW R27:R26,R25:R24
0004DD  932D    	ST X+,R18
0004DE  01CD    	MOVW R25:R24,R27:R26
0004DF  E0B0    	LDI XH,$00
0004E0  3DE4    	CPI ZL,$D4
0004E1  07FB    	CPC ZH,XH
0004E2  F7C1    	BRNE L121
0004E3  9508    	RET
0004E4  9160    L50:	LDS R22,$00C2
0004E5  00C2
0004E6  9170    	LDS R23,$00C3
0004E7  00C3
0004E8  9180    	LDS R24,$00C4
0004E9  00C4
0004EA  9190    	LDS R25,$00C5
0004EB  00C5
0004EC  9508    	RET
0004ED  E081    L105:	LDI R24,$01
0004EE  9380    	STS $00D9,R24
0004EF  00D9
0004F0  9380    	STS $0070,R24
0004F1  0070
0004F2  CEEB    	RJMP L75
0004F3  9ADA    L128:	SBI PORTA,2
0004F4  E280    	LDI R24,$20
0004F5  D18D    	RCALL L122
0004F6  E081    	LDI R24,$01
0004F7  D18B    	RCALL L122
0004F8  E08F    	LDI R24,$0F
0004F9  D189    	RCALL L122
0004FA  98DA    	CBI PORTA,2
0004FB  9ADA    	SBI PORTA,2
0004FC  E380    	LDI R24,$30
0004FD  D185    	RCALL L122
0004FE  E08A    	LDI R24,$0A
0004FF  D183    	RCALL L122
000500  E187    	LDI R24,$17
000501  D181    	RCALL L122
000502  98DA    	CBI PORTA,2
000503  9508    	RET
000504  92FF    L78:	PUSH R15
000505  930F    	PUSH R16
000506  931F    	PUSH R17
000507  93CF    	PUSH YL
000508  93DF    	PUSH YH
000509  2F16    	MOV R17,R22
00050A  2EF4    	MOV R15,R20
00050B  2F05    	MOV R16,R21
00050C  9ADA    	SBI PORTA,2
00050D  D175    	RCALL L122
00050E  2DCF    	MOV YL,R15
00050F  2FD0    	MOV YH,R16
000510  01CE    	MOVW R25:R24,R29:R28
000511  0F81    	ADD R24,R17
000512  1D91    	ADC R25,R1
000513  018C    	MOVW R17:R16,R25:R24
000514  17C0    L124:	CP YL,R16
000515  07D1    	CPC YH,R17
000516  F019    	BREQ L123
000517  9189    	LD R24,Y+
000518  D16A    	RCALL L122
000519  CFFA    	RJMP L124
00051A  98DA    L123:	CBI PORTA,2
00051B  91DF    	POP YH
00051C  91CF    	POP YL
00051D  911F    	POP R17
00051E  910F    	POP R16
00051F  90FF    	POP R15
000520  9508    	RET
000521  92EF    L79:	PUSH R14
000522  92FF    	PUSH R15
000523  930F    	PUSH R16
000524  931F    	PUSH R17
000525  93CF    	PUSH YL
000526  93DF    	PUSH YH
000527  2EF6    	MOV R15,R22
000528  01EA    	MOVW R29:R28,R21:R20
000529  9ADA    	SBI PORTA,2
00052A  6880    	ORI R24,$80
00052B  D157    	RCALL L122
00052C  018E    	MOVW R17:R16,R29:R28
00052D  01CE    	MOVW R25:R24,R29:R28
00052E  0D8F    	ADD R24,R15
00052F  1D91    	ADC R25,R1
000530  017C    	MOVW R15:R14,R25:R24
000531  150E    L127:	CP R16,R14
000532  051F    	CPC R17,R15
000533  F029    	BREQ L125
000534  D15E    	RCALL L126
000535  01F8    	MOVW R31:R30,R17:R16
000536  9381    	ST Z+,R24
000537  018F    	MOVW R17:R16,R31:R30
000538  CFF8    	RJMP L127
000539  98DA    L125:	CBI PORTA,2
00053A  8188    	LD R24,Y
00053B  778F    	ANDI R24,$7F
00053C  8388    	ST Y,R24
00053D  91DF    	POP YH
00053E  91CF    	POP YL
00053F  911F    	POP R17
000540  910F    	POP R16
000541  90FF    	POP R15
000542  90EF    	POP R14
000543  9508    	RET
000544  E880    L39:	LDI R24,$80
000545  E096    	LDI R25,$06
000546  B60F    	IN R0,SREG
000547  94F8    	BCLR 7
000548  BD86    	OUT CLKPR,R24
000549  BD96    	OUT CLKPR,R25
00054A  BE0F    	OUT SREG,R0
00054B  94F8    	BCLR 7
00054C  E59C    	LDI R25,$5C
00054D  BB9A    	OUT DDRA,R25
00054E  E79A    	LDI R25,$7A
00054F  BB9B    	OUT PORTA,R25
000550  E093    	LDI R25,$03
000551  BB97    	OUT DDRB,R25
000552  E094    	LDI R25,$04
000553  BB98    	OUT PORTB,R25
000554  BE15    	OUT MCUCR,R1
000555  B981    	OUT DIDR0,R24
000556  E08F    	LDI R24,$0F
000557  B980    	OUT PRR,R24
000558  9478    	BSET 7
000559  DF99    	RCALL L128
00055A  D085    L137:	RCALL L129
00055B  9180    L132:	LDS R24,$00D8
00055C  00D8
00055D  FF81    	SBRS R24,1
00055E  C002    	RJMP L130
00055F  D216    	RCALL L131
000560  CFFA    	RJMP L132
000561  9180    L130:	LDS R24,$00D8
000562  00D8
000563  FF83    	SBRS R24,3
000564  C002    	RJMP L133
000565  D04E    	RCALL L134
000566  CFF4    	RJMP L132
000567  9180    L133:	LDS R24,$00D8
000568  00D8
000569  FF82    	SBRS R24,2
00056A  C002    	RJMP L135
00056B  D0B4    	RCALL L136
00056C  CFEE    	RJMP L132
00056D  9180    L135:	LDS R24,$00D8
00056E  00D8
00056F  FF84    	SBRS R24,4
000570  CFEA    	RJMP L132
000571  CFE8    	RJMP L137
000572  92EF    L143:	PUSH R14
000573  92FF    	PUSH R15
000574  930F    	PUSH R16
000575  931F    	PUSH R17
000576  93CF    	PUSH YL
000577  93DF    	PUSH YH
000578  2EE8    	MOV R14,R24
000579  2EF6    	MOV R15,R22
00057A  2F04    	MOV R16,R20
00057B  2F12    	MOV R17,R18
00057C  DF0D    	RCALL L47
00057D  2FC8    	MOV YL,R24
00057E  E0D0    	LDI YH,$00
00057F  0FCC    	LSL YL
000580  1FDD    	ROL YH
000581  0FCC    	LSL YL
000582  1FDD    	ROL YH
000583  38CC    	CPI YL,$8C
000584  E081    	LDI R24,$01
000585  07D8    	CPC YH,R24
000586  F4AC    	BRGE L138
000587  2D6E    	MOV R22,R14
000588  01CE    	MOVW R25:R24,R29:R28
000589  588C    	SUBI R24,$8C
00058A  4F9F    	SBCI R25,$FF
00058B  D37F    	RCALL L94
00058C  2D6F    	MOV R22,R15
00058D  01CE    	MOVW R25:R24,R29:R28
00058E  588B    	SUBI R24,$8B
00058F  4F9F    	SBCI R25,$FF
000590  D37A    	RCALL L94
000591  2F60    	MOV R22,R16
000592  01CE    	MOVW R25:R24,R29:R28
000593  588A    	SUBI R24,$8A
000594  4F9F    	SBCI R25,$FF
000595  D375    	RCALL L94
000596  2F61    	MOV R22,R17
000597  01CE    	MOVW R25:R24,R29:R28
000598  5889    	SUBI R24,$89
000599  4F9F    	SBCI R25,$FF
00059A  D370    	RCALL L94
00059B  C00D    	RJMP L139
00059C  52C6    L138:	SUBI YL,$26
00059D  4FDF    	SBCI YH,$FF
00059E  01FE    	MOVW R31:R30,R29:R28
00059F  58EC    	SUBI ZL,$8C
0005A0  40F1    	SBCI ZH,$01
0005A1  82E0    	ST Z,R14
0005A2  9631    	ADIW ZH:ZL,1
0005A3  82F0    	ST Z,R15
0005A4  9631    	ADIW ZH:ZL,1
0005A5  8300    	ST Z,R16
0005A6  58C9    	SUBI YL,$89
0005A7  40D1    	SBCI YH,$01
0005A8  8318    	ST Y,R17
0005A9  DE82    L139:	RCALL L140
0005AA  E081    	LDI R24,$01
0005AB  9380    	STS $00D9,R24
0005AC  00D9
0005AD  91DF    	POP YH
0005AE  91CF    	POP YL
0005AF  911F    	POP R17
0005B0  910F    	POP R16
0005B1  90FF    	POP R15
0005B2  90EF    	POP R14
0005B3  9508    	RET
0005B4  93CF    L134:	PUSH YL
0005B5  93DF    	PUSH YH
0005B6  B7CD    	IN YL,SPL
0005B7  B7DE    	IN YH,SPH
0005B8  9727    	SBIW YH:YL,7
0005B9  B60F    	IN R0,SREG
0005BA  94F8    	BCLR 7
0005BB  BFDE    	OUT SPH,YH
0005BC  BE0F    	OUT SREG,R0
0005BD  BFCD    	OUT SPL,YL
0005BE  9180    	LDS R24,$00D8
0005BF  00D8
0005C0  7F87    	ANDI R24,$F7
0005C1  9380    	STS $00D8,R24
0005C2  00D8
0005C3  9180    	LDS R24,$00D8
0005C4  00D8
0005C5  6180    	ORI R24,$10
0005C6  9380    	STS $00D8,R24
0005C7  00D8
0005C8  E38C    	LDI R24,$3C
0005C9  9380    	STS $0067,R24
0005CA  0067
0005CB  9180    	LDS R24,$00D9
0005CC  00D9
0005CD  1181    	CPSE R24,R1
0005CE  C008    	RJMP L141
0005CF  01CE    	MOVW R25:R24,R29:R28
0005D0  9601    	ADIW R25:R24,1
0005D1  DF07    	RCALL L142
0005D2  812E    	LDD R18,Y+6
0005D3  814C    	LDD R20,Y+4
0005D4  816B    	LDD R22,Y+3
0005D5  818A    	LDD R24,Y+2
0005D6  DF9B    	RCALL L143
0005D7  9627    L141:	ADIW YH:YL,7
0005D8  B60F    	IN R0,SREG
0005D9  94F8    	BCLR 7
0005DA  BFDE    	OUT SPH,YH
0005DB  BE0F    	OUT SREG,R0
0005DC  BFCD    	OUT SPL,YL
0005DD  91DF    	POP YH
0005DE  91CF    	POP YL
0005DF  9508    	RET
0005E0  9180    L129:	LDS R24,$00D8
0005E1  00D8
0005E2  7E8F    	ANDI R24,$EF
0005E3  9380    	STS $00D8,R24
0005E4  00D8
0005E5  9180    	LDS R24,$0067
0005E6  0067
0005E7  2388    	TST R24
0005E8  F011    	BREQ L144
0005E9  9ADD    	SBI PORTA,5
0005EA  C001    	RJMP L145
0005EB  98DD    L144:	CBI PORTA,5
0005EC  9BC9    L145:	SBIS PINA,1
0005ED  CFFE    	RJMP L145
0005EE  9BB2    L146:	SBIS PINB,2
0005EF  CFFE    	RJMP L146
0005F0  E180    	LDI R24,$10
0005F1  BF8A    	OUT GIFR,R24
0005F2  E282    	LDI R24,$22
0005F3  BB82    	OUT PCMSK0,R24
0005F4  E580    	LDI R24,$50
0005F5  BF8B    	OUT GIMSK,R24
0005F6  B785    	IN R24,MCUCR
0005F7  7E87    	ANDI R24,$E7
0005F8  6180    	ORI R24,$10
0005F9  BF85    	OUT MCUCR,R24
0005FA  B785    	IN R24,MCUCR
0005FB  6280    	ORI R24,$20
0005FC  BF85    	OUT MCUCR,R24
0005FD  9588    	SLEEP
0005FE  B785    	IN R24,MCUCR
0005FF  7D8F    	ANDI R24,$DF
000600  BF85    	OUT MCUCR,R24
000601  9508    	RET
000602  921F    L2:	PUSH R1
000603  920F    	PUSH R0
000604  B60F    	IN R0,SREG
000605  920F    	PUSH R0
000606  2411    	CLR R1
000607  938F    	PUSH R24
000608  B78B    	IN R24,GIMSK
000609  7B8F    	ANDI R24,$BF
00060A  BF8B    	OUT GIMSK,R24
00060B  9180    	LDS R24,$00D8
00060C  00D8
00060D  6088    	ORI R24,$08
00060E  9380    	STS $00D8,R24
00060F  00D8
000610  918F    	POP R24
000611  900F    	POP R0
000612  BE0F    	OUT SREG,R0
000613  900F    	POP R0
000614  901F    	POP R1
000615  9518    	RETI
000616  9802    L153:	CBI PRR,PRTIM0
000617  E081    	LDI R24,$01
000618  BF89    	OUT TIMSK0,R24
000619  BE18    	OUT TIFR0,R1
00061A  BE10    	OUT TCCR0A,R1
00061B  E083    	LDI R24,$03
00061C  BF83    	OUT TCCR0B,R24
00061D  ED89    	LDI R24,$D9
00061E  BF82    	OUT TCNT0,R24
00061F  9508    	RET
000620  93CF    L136:	PUSH YL
000621  93DF    	PUSH YH
000622  B7CD    	IN YL,SPL
000623  B7DE    	IN YH,SPH
000624  9727    	SBIW YH:YL,7
000625  B60F    	IN R0,SREG
000626  94F8    	BCLR 7
000627  BFDE    	OUT SPH,YH
000628  BE0F    	OUT SREG,R0
000629  BFCD    	OUT SPL,YL
00062A  9180    	LDS R24,$00D8
00062B  00D8
00062C  7F8B    	ANDI R24,$FB
00062D  9380    	STS $00D8,R24
00062E  00D8
00062F  9180    	LDS R24,$0067
000630  0067
000631  2388    	TST R24
000632  F019    	BREQ L147
000633  5081    	SUBI R24,$01
000634  9380    	STS $0067,R24
000635  0067
000636  DE50    L147:	RCALL L43
000637  2388    	TST R24
000638  F129    	BREQ L148
000639  9180    	LDS R24,$0070
00063A  0070
00063B  2388    	TST R24
00063C  F109    	BREQ L148
00063D  DE4F    	RCALL L149
00063E  1181    	CPSE R24,R1
00063F  C002    	RJMP L150
000640  98DE    	CBI PORTA,6
000641  C00A    	RJMP L151
000642  9180    L150:	LDS R24,$00D9
000643  00D9
000644  1181    	CPSE R24,R1
000645  C006    	RJMP L151
000646  DE46    	RCALL L149
000647  3081    	CPI R24,$01
000648  F411    	BRNE L152
000649  98DC    	CBI PORTA,4
00064A  C001    	RJMP L151
00064B  98DB    L152:	CBI PORTA,3
00064C  DFC9    L151:	RCALL L153
00064D  DE7A    	RCALL L154
00064E  DE00    	RCALL L108
00064F  1181    	CPSE R24,R1
000650  9210    	STS $00D9,R1
000651  00D9
000652  DE18    	RCALL L155
000653  2388    	TST R24
000654  F071    	BREQ L156
000655  01CE    	MOVW R25:R24,R29:R28
000656  9601    	ADIW R25:R24,1
000657  DE81    	RCALL L142
000658  E020    	LDI R18,$00
000659  E040    	LDI R20,$00
00065A  E060    	LDI R22,$00
00065B  E080    	LDI R24,$00
00065C  DF15    	RCALL L143
00065D  C005    	RJMP L156
00065E  9180    L148:	LDS R24,$00D8
00065F  00D8
000660  6180    	ORI R24,$10
000661  9380    	STS $00D8,R24
000662  00D8
000663  9627    L156:	ADIW YH:YL,7
000664  B60F    	IN R0,SREG
000665  94F8    	BCLR 7
000666  BFDE    	OUT SPH,YH
000667  BE0F    	OUT SREG,R0
000668  BFCD    	OUT SPL,YL
000669  91DF    	POP YH
00066A  91CF    	POP YL
00066B  9508    	RET
00066C  921F    L5:	PUSH R1
00066D  920F    	PUSH R0
00066E  B60F    	IN R0,SREG
00066F  920F    	PUSH R0
000670  2411    	CLR R1
000671  938F    	PUSH R24
000672  BE13    	OUT TCCR0B,R1
000673  BE19    	OUT TIMSK0,R1
000674  9A02    	SBI PRR,PRTIM0
000675  B38B    	IN R24,PORTA
000676  6588    	ORI R24,$58
000677  BB8B    	OUT PORTA,R24
000678  9180    	LDS R24,$00D8
000679  00D8
00067A  6180    	ORI R24,$10
00067B  9380    	STS $00D8,R24
00067C  00D8
00067D  918F    	POP R24
00067E  900F    	POP R0
00067F  BE0F    	OUT SREG,R0
000680  900F    	POP R0
000681  901F    	POP R1
000682  9518    	RETI
000683  9AB8    L122:	SBI DDRB,0
000684  E098    	LDI R25,$08
000685  E820    	LDI R18,$80
000686  98C1    L159:	CBI PORTB,1
000687  2F38    	MOV R19,R24
000688  2332    	AND R19,R18
000689  F011    	BREQ L157
00068A  9AC0    	SBI PORTB,0
00068B  C001    	RJMP L158
00068C  98C0    L157:	CBI PORTB,0
00068D  9AC1    L158:	SBI PORTB,1
00068E  9526    	LSR R18
00068F  5091    	SUBI R25,$01
000690  F7A9    	BRNE L159
000691  98C1    	CBI PORTB,1
000692  9508    	RET
000693  98B8    L126:	CBI DDRB,0
000694  E098    	LDI R25,$08
000695  E820    	LDI R18,$80
000696  E080    	LDI R24,$00
000697  98C1    L160:	CBI PORTB,1
000698  9AC1    	SBI PORTB,1
000699  99B0    	SBIC PINB,0
00069A  2B82    	OR R24,R18
00069B  9526    	LSR R18
00069C  5091    	SUBI R25,$01
00069D  F7C9    	BRNE L160
00069E  98C1    	CBI PORTB,1
00069F  9508    	RET
0006A0  921F    L3:	PUSH R1
0006A1  920F    	PUSH R0
0006A2  B60F    	IN R0,SREG
0006A3  920F    	PUSH R0
0006A4  2411    	CLR R1
0006A5  932F    	PUSH R18
0006A6  938F    	PUSH R24
0006A7  939F    	PUSH R25
0006A8  93EF    	PUSH ZL
0006A9  93FF    	PUSH ZH
0006AA  99CD    	SBIC PINA,5
0006AB  C06E    	RJMP L161
0006AC  9BDD    	SBIS PORTA,5
0006AD  C06C    	RJMP L161
0006AE  E080    	LDI R24,$00
0006AF  0000    L162:	NOP
0006B0  5F8F    	SUBI R24,$FF
0006B1  3484    	CPI R24,$44
0006B2  F7E1    	BRNE L162
0006B3  9380    	STS $009B,R24
0006B4  009B
0006B5  9180    	LDS R24,$009A
0006B6  009A
0006B7  9BCD    	SBIS PINA,5
0006B8  C004    	RJMP L163
0006B9  6880    	ORI R24,$80
0006BA  9380    	STS $009A,R24
0006BB  009A
0006BC  C006    	RJMP L164
0006BD  778F    L163:	ANDI R24,$7F
0006BE  9380    	STS $009A,R24
0006BF  009A
0006C0  0000    	NOP
0006C1  0000    	NOP
0006C2  0000    	NOP
0006C3  9180    L164:	LDS R24,$009A
0006C4  009A
0006C5  9586    	LSR R24
0006C6  9380    	STS $009A,R24
0006C7  009A
0006C8  E080    	LDI R24,$00
0006C9  0000    L165:	NOP
0006CA  5F8F    	SUBI R24,$FF
0006CB  328D    	CPI R24,$2D
0006CC  F7E1    	BRNE L165
0006CD  9380    	STS $009B,R24
0006CE  009B
0006CF  E081    	LDI R24,$01
0006D0  9380    	STS $0099,R24
0006D1  0099
0006D2  9120    L170:	LDS R18,$0099
0006D3  0099
0006D4  9180    	LDS R24,$009A
0006D5  009A
0006D6  9190    	LDS R25,$009B
0006D7  009B
0006D8  3027    	CPI R18,$07
0006D9  F4F0    	BRCC L166
0006DA  6092    	ORI R25,$02
0006DB  9390    	STS $009B,R25
0006DC  009B
0006DD  9BCD    	SBIS PINA,5
0006DE  C004    	RJMP L167
0006DF  6880    	ORI R24,$80
0006E0  9380    	STS $009A,R24
0006E1  009A
0006E2  C005    	RJMP L168
0006E3  778F    L167:	ANDI R24,$7F
0006E4  9380    	STS $009A,R24
0006E5  009A
0006E6  0000    	NOP
0006E7  0000    	NOP
0006E8  E080    L168:	LDI R24,$00
0006E9  0000    L169:	NOP
0006EA  5F8F    	SUBI R24,$FF
0006EB  328D    	CPI R24,$2D
0006EC  F7E1    	BRNE L169
0006ED  9380    	STS $009B,R24
0006EE  009B
0006EF  9180    	LDS R24,$009A
0006F0  009A
0006F1  9586    	LSR R24
0006F2  9380    	STS $009A,R24
0006F3  009A
0006F4  5F2F    	SUBI R18,$FF
0006F5  9320    	STS $0099,R18
0006F6  0099
0006F7  CFDA    	RJMP L170
0006F8  0000    L166:	NOP
0006F9  0000    	NOP
0006FA  7F9D    	ANDI R25,$FD
0006FB  9390    	STS $009B,R25
0006FC  009B
0006FD  9BCD    	SBIS PINA,5
0006FE  C002    	RJMP L171
0006FF  6880    	ORI R24,$80
000700  C001    	RJMP L172
000701  778F    L171:	ANDI R24,$7F
000702  9380    L172:	STS $009A,R24
000703  009A
000704  9180    	LDS R24,$0067
000705  0067
000706  2388    	TST R24
000707  F0C9    	BREQ L173
000708  91E0    	LDS ZL,$009D
000709  009D
00070A  5FEF    	SUBI ZL,$FF
00070B  71EF    	ANDI ZL,$1F
00070C  93E0    	STS $0099,ZL
00070D  0099
00070E  93E0    	STS $009D,ZL
00070F  009D
000710  E0F0    	LDI ZH,$00
000711  56E2    	SUBI ZL,$62
000712  4FFF    	SBCI ZH,$FF
000713  9180    	LDS R24,$009A
000714  009A
000715  8380    	ST Z,R24
000716  9180    	LDS R24,$00D8
000717  00D8
000718  6082    	ORI R24,$02
000719  C005    	RJMP L174
00071A  99C9    L161:	SBIC PINA,1
00071B  C005    	RJMP L173
00071C  9180    	LDS R24,$00D8
00071D  00D8
00071E  6084    	ORI R24,$04
00071F  9380    L174:	STS $00D8,R24
000720  00D8
000721  E180    L173:	LDI R24,$10
000722  BF8A    	OUT GIFR,R24
000723  91FF    	POP ZH
000724  91EF    	POP ZL
000725  919F    	POP R25
000726  918F    	POP R24
000727  912F    	POP R18
000728  900F    	POP R0
000729  BE0F    	OUT SREG,R0
00072A  900F    	POP R0
00072B  901F    	POP R1
00072C  9518    	RETI
00072D  B39B    L42:	IN R25,PORTA
00072E  6198    	ORI R25,$18
00072F  BB9B    	OUT PORTA,R25
000730  98DE    	CBI PORTA,6
000731  E090    	LDI R25,$00
000732  0000    L175:	NOP
000733  5F9F    	SUBI R25,$FF
000734  3393    	CPI R25,$33
000735  F7E1    	BRNE L175
000736  9210    	STS $0098,R1
000737  0098
000738  9190    L180:	LDS R25,$0098
000739  0098
00073A  3098    	CPI R25,$08
00073B  F4B0    	BRCC L176
00073C  FF80    	SBRS R24,0
00073D  C002    	RJMP L177
00073E  9ADE    	SBI PORTA,6
00073F  C004    	RJMP L178
000740  98DE    L177:	CBI PORTA,6
000741  0000    	NOP
000742  0000    	NOP
000743  0000    	NOP
000744  E090    L178:	LDI R25,$00
000745  0000    L179:	NOP
000746  5F9F    	SUBI R25,$FF
000747  3390    	CPI R25,$30
000748  F7E1    	BRNE L179
000749  9390    	STS $0097,R25
00074A  0097
00074B  9586    	LSR R24
00074C  9190    	LDS R25,$0098
00074D  0098
00074E  5F9F    	SUBI R25,$FF
00074F  9390    	STS $0098,R25
000750  0098
000751  CFE6    	RJMP L180
000752  9ADE    L176:	SBI PORTA,6
000753  E080    	LDI R24,$00
000754  0000    L181:	NOP
000755  5F8F    	SUBI R24,$FF
000756  3380    	CPI R24,$30
000757  F7E1    	BRNE L181
000758  9380    	STS $0097,R24
000759  0097
00075A  9508    	RET
00075B  93CF    L58:	PUSH YL
00075C  93DF    	PUSH YH
00075D  01EC    	MOVW R29:R28,R25:R24
00075E  9189    L183:	LD R24,Y+
00075F  2388    	TST R24
000760  F011    	BREQ L182
000761  DFCB    	RCALL L42
000762  CFFB    	RJMP L183
000763  91DF    L182:	POP YH
000764  91CF    	POP YL
000765  9508    	RET
000766  93CF    L41:	PUSH YL
000767  93DF    	PUSH YH
000768  01EC    	MOVW R29:R28,R25:R24
000769  01CE    L185:	MOVW R25:R24,R29:R28
00076A  01FE    	MOVW R31:R30,R29:R28
00076B  9124    	LPM R18,Z
00076C  2322    	TST R18
00076D  F029    	BREQ L184
00076E  9621    	ADIW YH:YL,1
00076F  01FC    	MOVW R31:R30,R25:R24
000770  9184    	LPM R24,Z
000771  DFBB    	RCALL L42
000772  CFF6    	RJMP L185
000773  91DF    L184:	POP YH
000774  91CF    	POP YL
000775  9508    	RET
000776  92CF    L131:	PUSH R12
000777  92DF    	PUSH R13
000778  92EF    	PUSH R14
000779  92FF    	PUSH R15
00077A  931F    	PUSH R17
00077B  93CF    	PUSH YL
00077C  93DF    	PUSH YH
00077D  9180    	LDS R24,$00D8
00077E  00D8
00077F  7F8D    	ANDI R24,$FD
000780  9380    	STS $00D8,R24
000781  00D8
000782  E785    	LDI R24,$75
000783  E090    	LDI R25,$00
000784  9390    	STS $0096,R25
000785  0096
000786  9380    	STS $0095,R24
000787  0095
000788  E781    	LDI R24,$71
000789  E090    	LDI R25,$00
00078A  9390    	STS $0074,R25
00078B  0074
00078C  9380    	STS $0073,R24
00078D  0073
00078E  9190    L192:	LDS R25,$009D
00078F  009D
000790  9180    	LDS R24,$009C
000791  009C
000792  1798    	CP R25,R24
000793  F409    	BRNE L186
000794  C062    	RJMP L187
000795  9190    L186:	LDS R25,$009D
000796  009D
000797  9180    	LDS R24,$009C
000798  009C
000799  1798    	CP R25,R24
00079A  F3D1    	BREQ L186
00079B  91E0    	LDS ZL,$009C
00079C  009C
00079D  5FEF    	SUBI ZL,$FF
00079E  71EF    	ANDI ZL,$1F
00079F  93E0    	STS $009C,ZL
0007A0  009C
0007A1  90E0    	LDS R14,$0073
0007A2  0073
0007A3  90F0    	LDS R15,$0074
0007A4  0074
0007A5  01D7    	MOVW R27:R26,R15:R14
0007A6  91CD    	LD YL,X+
0007A7  91DC    	LD YH,X
0007A8  9711    	SBIW XH:XL,1
0007A9  32C0    	CPI YL,$20
0007AA  05D1    	CPC YH,R1
0007AB  F018    	BRCS L188
0007AC  921D    	ST X+,R1
0007AD  921C    	ST X,R1
0007AE  C009    	RJMP L189
0007AF  E0F0    L188:	LDI ZH,$00
0007B0  56E2    	SUBI ZL,$62
0007B1  4FFF    	SBCI ZH,$FF
0007B2  8110    	LD R17,Z
0007B3  311B    	CPI R17,$1B
0007B4  F451    	BRNE L190
0007B5  01F7    	MOVW R31:R30,R15:R14
0007B6  8211    	STD Z+1,R1
0007B7  8210    	ST Z,R1
0007B8  91E0    L189:	LDS ZL,$0095
0007B9  0095
0007BA  91F0    	LDS ZH,$0096
0007BB  0096
0007BC  8210    	ST Z,R1
0007BD  D8C6    	RCALL L191
0007BE  CFCF    	RJMP L192
0007BF  3018    L190:	CPI R17,$08
0007C0  F429    	BRNE L193
0007C1  9721    	SBIW YH:YL,1
0007C2  01D7    	MOVW R27:R26,R15:R14
0007C3  93CD    	ST X+,YL
0007C4  93DC    	ST X,YH
0007C5  CFC8    	RJMP L192
0007C6  2EC1    L193:	MOV R12,R17
0007C7  2CD1    	MOV R13,R1
0007C8  01C6    	MOVW R25:R24,R13:R12
0007C9  D096    	RCALL L194
0007CA  2B89    	OR R24,R25
0007CB  F431    	BRNE L195
0007CC  01C6    	MOVW R25:R24,R13:R12
0007CD  D0A6    	RCALL L196
0007CE  2B89    	OR R24,R25
0007CF  F411    	BRNE L195
0007D0  3210    	CPI R17,$20
0007D1  F471    	BRNE L197
0007D2  9180    L195:	LDS R24,$0095
0007D3  0095
0007D4  9190    	LDS R25,$0096
0007D5  0096
0007D6  0FC8    	ADD YL,R24
0007D7  1FD9    	ADC YH,R25
0007D8  8318    	ST Y,R17
0007D9  01F7    	MOVW R31:R30,R15:R14
0007DA  8180    	LD R24,Z
0007DB  8191    	LDD R25,Z+1
0007DC  9601    	ADIW R25:R24,1
0007DD  8391    	STD Z+1,R25
0007DE  8380    	ST Z,R24
0007DF  CFAE    	RJMP L192
0007E0  301D    L197:	CPI R17,$0D
0007E1  F009    	BREQ L198
0007E2  CFAB    	RJMP L192
0007E3  9180    L198:	LDS R24,$0095
0007E4  0095
0007E5  9190    	LDS R25,$0096
0007E6  0096
0007E7  0FC8    	ADD YL,R24
0007E8  1FD9    	ADC YH,R25
0007E9  8218    	ST Y,R1
0007EA  D985    	RCALL L199
0007EB  91E0    	LDS ZL,$0095
0007EC  0095
0007ED  91F0    	LDS ZH,$0096
0007EE  0096
0007EF  8210    	ST Z,R1
0007F0  91E0    	LDS ZL,$0073
0007F1  0073
0007F2  91F0    	LDS ZH,$0074
0007F3  0074
0007F4  8211    	STD Z+1,R1
0007F5  8210    	ST Z,R1
0007F6  CF97    	RJMP L192
0007F7  91DF    L187:	POP YH
0007F8  91CF    	POP YL
0007F9  911F    	POP R17
0007FA  90FF    	POP R15
0007FB  90EF    	POP R14
0007FC  90DF    	POP R13
0007FD  90CF    	POP R12
0007FE  9508    	RET
0007FF  2400    L69:	CLR R0
000800  FD80    L201:	SBRC R24,0
000801  0E06    	ADD R0,R22
000802  0F66    	LSL R22
000803  F011    	BREQ L200
000804  9586    	LSR R24
000805  F7D1    	BRNE L201
000806  2D80    L200:	MOV R24,R0
000807  9508    	RET
000808  27EE    L66:	CLR ZL
000809  27FF    	CLR ZH
00080A  27AA    	CLR XL
00080B  27BB    	CLR XH
00080C  C008    	RJMP L202
00080D  0FA2    L203:	ADD XL,R18
00080E  1FB3    	ADC XH,R19
00080F  1FE4    	ADC ZL,R20
000810  1FF5    	ADC ZH,R21
000811  0F22    L204:	LSL R18
000812  1F33    	ROL R19
000813  1F44    	ROL R20
000814  1F55    	ROL R21
000815  9596    L202:	LSR R25
000816  9587    	ROR R24
000817  9577    	ROR R23
000818  9567    	ROR R22
000819  F398    	BRCS L203
00081A  4070    	SBCI R23,$00
00081B  F7A9    	BRNE L204
00081C  9700    	SBIW R25:R24,0
00081D  F799    	BRNE L204
00081E  01BD    	MOVW R23:R22,R27:R26
00081F  01CF    	MOVW R25:R24,R31:R30
000820  9508    	RET
000821  E2A1    L74:	LDI XL,$21
000822  2E1A    	MOV R1,XL
000823  1BAA    	SUB XL,XL
000824  1BBB    	SUB XH,XH
000825  01FD    	MOVW R31:R30,R27:R26
000826  C00D    	RJMP L205
000827  1FAA    L206:	ROL XL
000828  1FBB    	ROL XH
000829  1FEE    	ROL ZL
00082A  1FFF    	ROL ZH
00082B  17A2    	CP XL,R18
00082C  07B3    	CPC XH,R19
00082D  07E4    	CPC ZL,R20
00082E  07F5    	CPC ZH,R21
00082F  F020    	BRCS L205
000830  1BA2    	SUB XL,R18
000831  0BB3    	SBC XH,R19
000832  0BE4    	SBC ZL,R20
000833  0BF5    	SBC ZH,R21
000834  1F66    L205:	ROL R22
000835  1F77    	ROL R23
000836  1F88    	ROL R24
000837  1F99    	ROL R25
000838  941A    	DEC R1
000839  F769    	BRNE L206
00083A  9560    	COM R22
00083B  9570    	COM R23
00083C  9580    	COM R24
00083D  9590    	COM R25
00083E  019B    	MOVW R19:R18,R23:R22
00083F  01AC    	MOVW R21:R20,R25:R24
000840  01BD    	MOVW R23:R22,R27:R26
000841  01CF    	MOVW R25:R24,R31:R30
000842  9508    	RET
000843  01FC    L64:	MOVW R31:R30,R25:R24
000844  2788    	CLR R24
000845  2799    	CLR R25
000846  94E8    	BCLR 6
000847  9121    L207:	LD R18,Z+
000848  3220    	CPI R18,$20
000849  F3E9    	BREQ L207
00084A  3029    	CPI R18,$09
00084B  F010    	BRCS L208
00084C  302E    	CPI R18,$0E
00084D  F3C8    	BRCS L207
00084E  322B    L208:	CPI R18,$2B
00084F  F039    	BREQ L209
000850  322D    	CPI R18,$2D
000851  F431    	BRNE L210
000852  9468    	BSET 6
000853  C003    	RJMP L209
000854  D03C    L212:	RCALL L211
000855  0F82    	ADD R24,R18
000856  1D91    	ADC R25,R1
000857  9121    L209:	LD R18,Z+
000858  5320    L210:	SUBI R18,$30
000859  302A    	CPI R18,$0A
00085A  F3C8    	BRCS L212
00085B  F41E    	BRTC L213
00085C  9590    	COM R25
00085D  9581    	NEG R24
00085E  4F9F    	SBCI R25,$FF
00085F  9508    L213:	RET
000860  1191    L194:	CPSE R25,R1
000861  C006    	RJMP L214
000862  5380    	SUBI R24,$30
000863  508A    	SUBI R24,$0A
000864  F010    	BRCS L215
000865  5C86    	SUBI R24,$C6
000866  C006    	RJMP L216
000867  9508    L215:	RET
000868  2799    L214:	CLR R25
000869  2788    	CLR R24
00086A  9508    	RET
00086B  FD85    	SBRC R24,5
00086C  CFFB    	RJMP L214
00086D  6280    L216:	ORI R24,$20
00086E  1191    	CPSE R25,R1
00086F  CFF8    L217:	RJMP L214
000870  5681    	SUBI R24,$61
000871  518A    	SUBI R24,$1A
000872  F7E0    	BRCC L217
000873  9508    	RET
000874  1191    L196:	CPSE R25,R1
000875  CFF2    L218:	RJMP L214
000876  5281    	SUBI R24,$21
000877  558E    	SUBI R24,$5E
000878  F7E0    	BRCC L218
000879  5881    	SUBI R24,$81
00087A  DFE5    	RCALL L194
00087B  2388    	TST R24
00087C  F7C1    	BRNE L218
00087D  E081    	LDI R24,$01
00087E  9508    	RET
00087F  1191    L70:	CPSE R25,R1
000880  9508    	RET
000881  5681    	SUBI R24,$61
000882  518A    	SUBI R24,$1A
000883  F408    	BRCC L219
000884  5280    	SUBI R24,$20
000885  5885    L219:	SUBI R24,$85
000886  9508    	RET
000887  27BB    L57:	CLR XH
000888  304A    	CPI R20,$0A
000889  F431    	BRNE L220
00088A  2399    	TST R25
00088B  F422    	BRPL L220
00088C  E2BD    	LDI XH,$2D
00088D  9590    	COM R25
00088E  9581    	NEG R24
00088F  4F9F    	SBCI R25,$FF
000890  C02C    L220:	RJMP L221
000891  01BC    L211:	MOVW R23:R22,R25:R24
000892  0F88    	LSL R24
000893  1F99    	ROL R25
000894  0F88    	LSL R24
000895  1F99    	ROL R25
000896  0F86    	ADD R24,R22
000897  1F97    	ADC R25,R23
000898  0F88    	LSL R24
000899  1F99    	ROL R25
00089A  9508    	RET
00089B  27BB    L109:	CLR XH
00089C  01FA    	MOVW R31:R30,R21:R20
00089D  2FA6    L226:	MOV XL,R22
00089E  1762    	CP R22,R18
00089F  0571    	CPC R23,R1
0008A0  0581    	CPC R24,R1
0008A1  0591    	CPC R25,R1
0008A2  0B33    	SBC R19,R19
0008A3  FB30    	BST R19,0
0008A4  F066    	BRTS L222
0008A5  27AA    	CLR XL
0008A6  0F66    L224:	LSL R22
0008A7  1F77    	ROL R23
0008A8  1F88    	ROL R24
0008A9  1F99    	ROL R25
0008AA  1FAA    	ROL XL
0008AB  17A2    	CP XL,R18
0008AC  F010    	BRCS L223
0008AD  1BA2    	SUB XL,R18
0008AE  9563    	INC R22
0008AF  5038    L223:	SUBI R19,$08
0008B0  F7A9    	BRNE L224
0008B1  5DA0    L222:	SUBI XL,$D0
0008B2  33AA    	CPI XL,$3A
0008B3  F008    	BRCS L225
0008B4  5DA9    	SUBI XL,$D9
0008B5  93A1    L225:	ST Z+,XL
0008B6  F736    	BRTC L226
0008B7  11B1    	CPSE XH,R1
0008B8  93B1    	ST Z+,XH
0008B9  8210    	ST Z,R1
0008BA  01CA    	MOVW R25:R24,R21:R20
0008BB  C019    	RJMP L227
0008BC  27BB    L83:	CLR XH
0008BD  01FB    L221:	MOVW R31:R30,R23:R22
0008BE  2755    	CLR R21
0008BF  27AA    L231:	CLR XL
0008C0  0F88    L229:	LSL R24
0008C1  1F99    	ROL R25
0008C2  1FAA    	ROL XL
0008C3  17A4    	CP XL,R20
0008C4  F010    	BRCS L228
0008C5  1BA4    	SUB XL,R20
0008C6  9583    	INC R24
0008C7  5150    L228:	SUBI R21,$10
0008C8  F7B9    	BRNE L229
0008C9  5DA0    	SUBI XL,$D0
0008CA  33AA    	CPI XL,$3A
0008CB  F008    	BRCS L230
0008CC  5DA9    	SUBI XL,$D9
0008CD  93A1    L230:	ST Z+,XL
0008CE  9700    	SBIW R25:R24,0
0008CF  F779    	BRNE L231
0008D0  11B1    	CPSE XH,R1
0008D1  93B1    	ST Z+,XH
0008D2  9211    	ST Z+,R1
0008D3  01CB    	MOVW R25:R24,R23:R22
0008D4  C000    	RJMP L227
0008D5  01DC    L227:	MOVW R27:R26,R25:R24
0008D6  01FC    	MOVW R31:R30,R25:R24
0008D7  2F67    L232:	MOV R22,R23
0008D8  9171    	LD R23,Z+
0008D9  2377    	TST R23
0008DA  F7E1    	BRNE L232
0008DB  9732    	SBIW ZH:ZL,2
0008DC  C004    	RJMP L233
0008DD  917C    L234:	LD R23,X
0008DE  936D    	ST X+,R22
0008DF  8370    	ST Z,R23
0008E0  9162    	LD R22,-Z
0008E1  17AE    L233:	CP XL,ZL
0008E2  07BF    	CPC XH,ZH
0008E3  F3C8    	BRCS L234
0008E4  9508    	RET
0008E5  01DC    L54:	MOVW R27:R26,R25:R24
0008E6  01CB    	MOVW R25:R24,R23:R22
0008E7  01FC    L238:	MOVW R31:R30,R25:R24
0008E8  99E1    L235:	SBIC EECR,EEPE
0008E9  CFFE    	RJMP L235
0008EA  C006    	RJMP L236
0008EB  BBFF    L237:	OUT EEARH,ZH
0008EC  BBEE    	OUT EEARL,ZL
0008ED  9AE0    	SBI EECR,EERE
0008EE  9631    	ADIW ZH:ZL,1
0008EF  B20D    	IN R0,EEDR
0008F0  920D    	ST X+,R0
0008F1  5041    L236:	SUBI R20,$01
0008F2  4050    	SBCI R21,$00
0008F3  F7B8    	BRCC L237
0008F4  9508    	RET
0008F5  99E1    L87:	SBIC EECR,EEPE
0008F6  CFFE    	RJMP L87
0008F7  BB9F    	OUT EEARH,R25
0008F8  BB8E    	OUT EEARL,R24
0008F9  9AE0    	SBI EECR,EERE
0008FA  2799    	CLR R25
0008FB  B38D    	IN R24,EEDR
0008FC  9508    	RET
0008FD  E1A8    	LDI XL,$18
0008FE  E0B0    	LDI XH,$00
0008FF  E042    	LDI R20,$02
000900  E050    	LDI R21,$00
000901  CFE5    	RJMP L238
000902  01DC    L63:	MOVW R27:R26,R25:R24
000903  01CB    	MOVW R25:R24,R23:R22
000904  C002    	RJMP L239
000905  912D    L241:	LD R18,X+
000906  D005    	RCALL L240
000907  5041    L239:	SUBI R20,$01
000908  4050    	SBCI R21,$00
000909  F7D8    	BRCC L241
00090A  9508    	RET
00090B  2F26    L94:	MOV R18,R22
00090C  99E1    L240:	SBIC EECR,EEPE
00090D  CFFE    	RJMP L240
00090E  BA1C    	OUT EECR,R1
00090F  BB9F    	OUT EEARH,R25
000910  BB8E    	OUT EEARL,R24
000911  BB2D    	OUT EEDR,R18
000912  B60F    	IN R0,SREG
000913  94F8    	BCLR 7
000914  9AE2    	SBI EECR,EEMPE
000915  9AE1    	SBI EECR,EEPE
000916  BE0F    	OUT SREG,R0
000917  9601    	ADIW R25:R24,1
000918  9508    	RET
000919  DFF1    L65:	RCALL L94
00091A  2F27    	MOV R18,R23
00091B  CFF0    	RJMP L240
00091C  94F8    	BCLR 7
00091D  CFFF    L242:	RJMP L242
00091E  0000    	NOP
00091F  0100    	MOVW R1:R0,R1:R0
000920  0100    	MOVW R1:R0,R1:R0
000921  3C0E    	CPI R16,$CE
